; Function Attrs: mustprogress nounwind uwtable
define dso_local void @_ZN4node9inspector21ParentInspectorHandle7ConnectESt10unique_ptrINS0_24InspectorSessionDelegateESt14default_deleteIS3_EEb(ptr noalias sret(%"class.std::unique_ptr.2") align 8 %agg.result, ptr nocapture noundef nonnull readonly align 8 dereferenceable(96) %this, ptr nocapture noundef %delegate, i1 noundef zeroext %prevent_shutdown) local_unnamed_addr #0 align 2 {
entry:
  %agg.tmp = alloca %"class.std::unique_ptr.10", align 8
  %parent_thread_ = getelementptr inbounds i8, ptr %this, i64 40
  %0 = load ptr, ptr %parent_thread_, align 8
  %1 = load i64, ptr %delegate, align 8
  store i64 %1, ptr %agg.tmp, align 8
  store ptr null, ptr %delegate, align 8
  call void @_ZN4node9inspector16MainThreadHandle7ConnectESt10unique_ptrINS0_24InspectorSessionDelegateESt14default_deleteIS3_EEb(ptr sret(%"class.std::unique_ptr.2") align 8 %agg.result, ptr noundef nonnull align 8 dereferenceable(72) %0, ptr noundef nonnull %agg.tmp, i1 noundef zeroext %prevent_shutdown) #12
  %2 = load ptr, ptr %agg.tmp, align 8
  %cmp.not.i = icmp eq ptr %2, null
  br i1 %cmp.not.i, label %_ZNSt10unique_ptrIN4node9inspector24InspectorSessionDelegateESt14default_deleteIS2_EED2Ev.exit, label %_ZNKSt14default_deleteIN4node9inspector24InspectorSessionDelegateEEclEPS2_.exit.i

_ZNKSt14default_deleteIN4node9inspector24InspectorSessionDelegateEEclEPS2_.exit.i: ; preds = %entry
  %vtable.i.i = load ptr, ptr %2, align 8
  %vfn.i.i = getelementptr inbounds i8, ptr %vtable.i.i, i64 8
  %3 = load ptr, ptr %vfn.i.i, align 8
  call void %3(ptr noundef nonnull align 8 dereferenceable(8) %2) #12
  br label %_ZNSt10unique_ptrIN4node9inspector24InspectorSessionDelegateESt14default_deleteIS2_EED2Ev.exit

_ZNSt10unique_ptrIN4node9inspector24InspectorSessionDelegateESt14default_deleteIS2_EED2Ev.exit: ; preds = %entry, %_ZNKSt14default_deleteIN4node9inspector24InspectorSessionDelegateEEclEPS2_.exit.i
  ret void
}